Certificate:
    Data:
        Version: 3 (0x2)
        Serial Number: 2 (0x2)
        Signature Algorithm: sha1WithRSAEncryption
        Issuer: C=US, ST=MA, O=SIPB, CN=anygit-db.mit.edu/emailAddress=anygit@mit.edu
        Validity
            Not Before: May 21 01:12:55 2010 GMT
            Not After : May 21 01:12:55 2011 GMT
        Subject: C=US, ST=MA, O=SIPB, OU=Anygit, CN=anygit-client/emailAddress=anygit@mit.edu
        Subject Public Key Info:
            Public Key Algorithm: rsaEncryption
            RSA Public Key: (2048 bit)
                Modulus (2048 bit):
                    00:bf:d4:36:5c:6f:88:6b:be:b7:f7:a0:a3:00:00:
                    d2:d1:67:69:5a:1a:3e:e3:08:14:c3:81:fe:8f:24:
                    a6:c0:2d:c4:e5:1f:34:1e:13:d1:cd:1b:27:67:c4:
                    da:3c:42:41:5b:52:36:db:9b:88:d1:cf:ad:31:67:
                    3f:20:b8:c6:a1:35:90:1e:45:c0:36:59:bb:df:5f:
                    3c:12:ba:61:46:e0:08:c0:36:0b:dc:71:8e:7a:83:
                    a4:50:09:ea:6a:95:6d:95:33:be:0c:a9:8e:60:83:
                    4f:75:b2:97:f9:4e:78:c9:5a:3a:42:84:9e:d9:f3:
                    b0:5c:72:b2:51:12:ac:52:07:40:9a:91:6a:ce:6f:
                    e2:55:82:e2:e9:40:39:95:14:f3:e0:91:d3:9f:5c:
                    5a:30:83:0c:e0:bf:4c:37:4a:c1:a7:bd:18:e2:3d:
                    d6:25:01:0c:15:fb:61:8f:b9:68:d8:25:09:94:75:
                    96:80:87:cf:5b:c3:7c:93:65:0a:5a:d9:ee:58:5d:
                    be:09:e4:38:64:d7:63:61:a6:a2:a2:82:60:13:a0:
                    99:7b:54:a1:30:f0:2c:5a:3c:3d:bb:fd:23:d2:d9:
                    14:5b:3c:27:21:10:2a:0a:bb:68:ed:16:aa:66:02:
                    91:47:ab:8b:8b:fc:fe:d5:9a:5d:b5:df:2b:84:29:
                    95:57
                Exponent: 65537 (0x10001)
        X509v3 extensions:
            X509v3 Basic Constraints: 
                CA:FALSE
            Netscape Comment: 
                OpenSSL Generated Certificate
            X509v3 Subject Key Identifier: 
                7F:FB:01:D1:A0:41:DA:5C:B7:4D:78:71:59:AF:0F:EB:46:1C:AE:0D
            X509v3 Authority Key Identifier: 
                keyid:87:B2:94:12:F9:FF:05:0A:8D:D9:14:7E:05:EB:34:E6:D7:A8:CB:96

    Signature Algorithm: sha1WithRSAEncryption
        28:85:c7:55:e6:c7:bf:af:e5:41:29:49:65:50:9e:9f:e9:c7:
        b2:62:f9:24:ca:98:8b:40:b3:27:a6:71:98:1f:08:2a:70:1f:
        7d:f8:d9:f6:4a:f8:13:38:48:76:cb:0a:ef:a6:41:36:10:29:
        23:51:6c:11:b4:e7:82:6b:10:95:bc:93:48:af:61:29:cf:da:
        55:e2:d8:db:f7:e2:f1:ce:b6:b7:16:02:01:a0:90:20:34:3e:
        2f:a9:ca:1f:ed:f0:ed:b6:05:25:7f:96:aa:60:71:81:f3:db:
        54:66:57:9e:90:d6:9b:e2:cd:3e:ef:f7:0f:f0:9a:1d:c6:60:
        e5:e0:ff:76:14:8c:75:59:e8:6c:d5:0b:42:83:6a:f9:bc:50:
        08:2c:9b:20:9f:3a:f0:d9:6b:7e:24:c7:36:65:22:38:bd:b0:
        b6:a9:7b:5c:d1:a4:0b:93:d7:e0:8d:4e:83:ec:6d:cc:d1:77:
        8c:5c:60:99:76:25:0c:22:2b:e0:da:11:8a:e3:a6:7c:e4:62:
        82:4a:b0:37:fc:fa:93:7b:68:61:19:64:a0:d6:60:e1:39:3a:
        f4:db:26:2e:ef:e4:61:7f:d9:b1:6f:ed:fe:fe:e6:b6:69:2e:
        88:a8:06:2b:ba:25:e0:72:ab:e2:42:27:01:33:db:77:05:cb:
        61:ed:76:6c
-----BEGIN CERTIFICATE-----
MIIDyzCCArOgAwIBAgIBAjANBgkqhkiG9w0BAQUFADBkMQswCQYDVQQGEwJVUzEL
MAkGA1UECBMCTUExDTALBgNVBAoTBFNJUEIxGjAYBgNVBAMTEWFueWdpdC1kYi5t
aXQuZWR1MR0wGwYJKoZIhvcNAQkBFg5hbnlnaXRAbWl0LmVkdTAeFw0xMDA1MjEw
MTEyNTVaFw0xMTA1MjEwMTEyNTVaMHExCzAJBgNVBAYTAlVTMQswCQYDVQQIEwJN
QTENMAsGA1UEChMEU0lQQjEPMA0GA1UECxMGQW55Z2l0MRYwFAYDVQQDEw1hbnln
aXQtY2xpZW50MR0wGwYJKoZIhvcNAQkBFg5hbnlnaXRAbWl0LmVkdTCCASIwDQYJ
KoZIhvcNAQEBBQADggEPADCCAQoCggEBAL/UNlxviGu+t/egowAA0tFnaVoaPuMI
FMOB/o8kpsAtxOUfNB4T0c0bJ2fE2jxCQVtSNtubiNHPrTFnPyC4xqE1kB5FwDZZ
u99fPBK6YUbgCMA2C9xxjnqDpFAJ6mqVbZUzvgypjmCDT3Wyl/lOeMlaOkKEntnz
sFxyslESrFIHQJqRas5v4lWC4ulAOZUU8+CR059cWjCDDOC/TDdKwae9GOI91iUB
DBX7YY+5aNglCZR1loCHz1vDfJNlClrZ7lhdvgnkOGTXY2GmoqKCYBOgmXtUoTDw
LFo8Pbv9I9LZFFs8JyEQKgq7aO0WqmYCkUeri4v8/tWaXbXfK4QplVcCAwEAAaN7
MHkwCQYDVR0TBAIwADAsBglghkgBhvhCAQ0EHxYdT3BlblNTTCBHZW5lcmF0ZWQg
Q2VydGlmaWNhdGUwHQYDVR0OBBYEFH/7AdGgQdpct014cVmvD+tGHK4NMB8GA1Ud
IwQYMBaAFIeylBL5/wUKjdkUfgXrNObXqMuWMA0GCSqGSIb3DQEBBQUAA4IBAQAo
hcdV5se/r+VBKUllUJ6f6ceyYvkkypiLQLMnpnGYHwgqcB99+Nn2SvgTOEh2ywrv
pkE2ECkjUWwRtOeCaxCVvJNIr2Epz9pV4tjb9+Lxzra3FgIBoJAgND4vqcof7fDt
tgUlf5aqYHGB89tUZleekNab4s0+7/cP8JodxmDl4P92FIx1Wehs1QtCg2r5vFAI
LJsgnzrw2Wt+JMc2ZSI4vbC2qXtc0aQLk9fgjU6D7G3M0XeMXGCZdiUMIivg2hGK
46Z85GKCSrA3/PqTe2hhGWSg1mDhOTr02yYu7+Rhf9mxb+3+/ua2aS6IqAYruiXg
cqviQicBM9t3Bcth7XZs
-----END CERTIFICATE-----
